; Function Attrs: mustprogress nofree norecurse nosync nounwind memory(argmem: readwrite) uwtable
define internal void @_ZN2cv12cpu_baselineL14cvtScale32s16fEPKhmS2_mPhmNS_5Size_IiEEPv(ptr noundef readonly captures(none) %0, i64 noundef %1, ptr readnone captures(none) %2, i64 %3, ptr noundef writeonly captures(none) %4, i64 noundef %5, i64 %6, ptr noundef readonly captures(none) %7) #2 {
  %9 = load double, ptr %7, align 8, !tbaa !7
  %10 = fptrunc double %9 to float
  %11 = getelementptr inbounds nuw i8, ptr %7, i64 8
  %12 = load double, ptr %11, align 8, !tbaa !7
  %13 = fptrunc double %12 to float
  %.sroa.2.0.extract.shift.i = lshr i64 %6, 32
  %.sroa.2.0.extract.trunc.i = trunc nuw i64 %.sroa.2.0.extract.shift.i to i32
  %14 = lshr i64 %1, 2
  %15 = lshr i64 %5, 1
  %16 = icmp sgt i32 %.sroa.2.0.extract.trunc.i, 0
  %.sroa.015.0.extract.trunc.i = trunc i64 %6 to i32
  %17 = icmp sgt i32 %.sroa.015.0.extract.trunc.i, 0
  %or.cond.i = and i1 %17, %16
  br i1 %or.cond.i, label %.preheader.us.preheader.i, label %_ZN2cv12cpu_baseline8cvt1_32fIiNS_6hfloatEEEvPKT_mPT0_mNS_5Size_IiEEff.exit

.preheader.us.preheader.i:                        ; preds = %8
  %wide.trip.count.i = and i64 %6, 2147483647
  br label %.preheader.us.i

.preheader.us.i:                                  ; preds = %._crit_edge.us.i, %.preheader.us.preheader.i
  %.022.us.i = phi ptr [ %50, %._crit_edge.us.i ], [ %0, %.preheader.us.preheader.i ]
  %.01721.us.i = phi i32 [ %49, %._crit_edge.us.i ], [ 0, %.preheader.us.preheader.i ]
  %.01820.us.i = phi ptr [ %51, %._crit_edge.us.i ], [ %4, %.preheader.us.preheader.i ]
  br label %18

18:                                               ; preds = %_ZN2cvL13saturate_castINS_6hfloatEEET_f.exit.us.i, %.preheader.us.i
  %indvars.iv.i = phi i64 [ 0, %.preheader.us.i ], [ %indvars.iv.next.i, %_ZN2cvL13saturate_castINS_6hfloatEEET_f.exit.us.i ]
  %19 = getelementptr inbounds nuw i32, ptr %.022.us.i, i64 %indvars.iv.i
  %20 = load i32, ptr %19, align 4, !tbaa !21
  %21 = sitofp i32 %20 to float
  %22 = tail call float @llvm.fmuladd.f32(float %21, float %10, float %13)
  %23 = tail call float @llvm.fabs.f32(float %22)
  %24 = bitcast float %23 to i32
  %25 = icmp samesign ugt i32 %24, 1199570943
  br i1 %25, label %39, label %26

26:                                               ; preds = %18
  %27 = icmp samesign ult i32 %24, 947912704
  br i1 %27, label %35, label %28

28:                                               ; preds = %26
  %29 = add nuw nsw i32 %24, 134221823
  %30 = lshr i32 %24, 13
  %31 = and i32 %30, 1
  %32 = add nuw nsw i32 %29, %31
  %33 = lshr i32 %32, 13
  %34 = trunc i32 %33 to i16
  br label %_ZN2cvL13saturate_castINS_6hfloatEEET_f.exit.us.i

35:                                               ; preds = %26
  %36 = fadd float %23, 5.000000e-01
  %37 = bitcast float %36 to i32
  %38 = trunc i32 %37 to i16
  br label %_ZN2cvL13saturate_castINS_6hfloatEEET_f.exit.us.i

39:                                               ; preds = %18
  %40 = icmp samesign ugt i32 %24, 2139095040
  %41 = select i1 %40, i16 32256, i16 31744
  br label %_ZN2cvL13saturate_castINS_6hfloatEEET_f.exit.us.i

_ZN2cvL13saturate_castINS_6hfloatEEET_f.exit.us.i: ; preds = %39, %35, %28
  %42 = phi i16 [ %38, %35 ], [ %34, %28 ], [ %41, %39 ]
  %43 = bitcast float %22 to i32
  %44 = lshr i32 %43, 16
  %45 = trunc nuw i32 %44 to i16
  %46 = and i16 %45, -32768
  %47 = or i16 %42, %46
  %48 = getelementptr inbounds nuw %"class.cv::hfloat", ptr %.01820.us.i, i64 %indvars.iv.i
  store i16 %47, ptr %48, align 2, !tbaa !15
  %indvars.iv.next.i = add nuw nsw i64 %indvars.iv.i, 1
  %exitcond.not.i = icmp eq i64 %indvars.iv.next.i, %wide.trip.count.i
  br i1 %exitcond.not.i, label %._crit_edge.us.i, label %18, !llvm.loop !153

._crit_edge.us.i:                                 ; preds = %_ZN2cvL13saturate_castINS_6hfloatEEET_f.exit.us.i
  %49 = add nuw nsw i32 %.01721.us.i, 1
  %50 = getelementptr inbounds nuw i32, ptr %.022.us.i, i64 %14
  %51 = getelementptr inbounds nuw %"class.cv::hfloat", ptr %.01820.us.i, i64 %15
  %exitcond26.not.i = icmp eq i32 %49, %.sroa.2.0.extract.trunc.i
  br i1 %exitcond26.not.i, label %_ZN2cv12cpu_baseline8cvt1_32fIiNS_6hfloatEEEvPKT_mPT0_mNS_5Size_IiEEff.exit, label %.preheader.us.i, !llvm.loop !154

_ZN2cv12cpu_baseline8cvt1_32fIiNS_6hfloatEEEvPKT_mPT0_mNS_5Size_IiEEff.exit: ; preds = %._crit_edge.us.i, %8
  ret void
}